Certificate:
    Data:
        Version: 1 (0x0)
        Serial Number:
            ed:86:53:5a:58:10:00:15
    Signature Algorithm: sha1WithRSAEncryption
        Issuer: C=US, ST=CA, L=Santa Clara, O=Real Time Innovations, CN=RTI CA/emailAddress=secure@rti.com
        Validity
            Not Before: Mar  1 06:14:14 2019 GMT
            Not After : Feb 29 06:14:14 2020 GMT
        Subject: C=US, ST=CA, O=Real Time Innovations, CN=dtlsexample/emailAddress=me@rti.com
        Subject Public Key Info:
            Public Key Algorithm: rsaEncryption
                Public-Key: (2048 bit)
                Modulus:
                    00:b2:af:c9:6d:29:cf:04:b7:9d:f5:c5:a5:e3:ae:
                    17:ec:7e:64:11:57:93:99:b5:bc:66:cc:42:66:24:
                    f3:84:d8:73:e0:e8:fc:47:d0:b4:cb:e1:ba:68:fa:
                    d2:71:80:3c:c3:cb:b7:0e:35:be:dd:b6:a0:2b:67:
                    25:d9:6c:0b:7a:98:ed:2e:91:2a:ea:24:67:87:38:
                    7c:17:a1:bc:72:3f:e8:03:3a:96:20:c1:28:1b:8b:
                    c3:93:97:9e:ef:3a:60:79:4f:6d:ed:53:13:0c:5c:
                    69:83:4c:fb:b5:d2:c3:29:eb:36:16:78:79:db:00:
                    d8:dc:af:16:b4:e8:18:79:23:9d:00:29:79:38:52:
                    c3:4b:68:7d:86:07:df:71:cf:03:b7:69:a4:e1:ed:
                    57:27:db:56:f8:27:d4:d0:a0:04:a8:43:12:cc:a7:
                    33:92:77:2d:df:06:af:38:c4:bc:06:ec:1d:b3:d4:
                    39:e9:3b:cd:e3:8c:8b:8f:eb:f5:66:9e:2a:57:21:
                    db:95:db:97:c3:50:34:c3:9f:4b:6a:29:f6:28:5a:
                    65:ce:77:34:98:79:90:e1:e5:de:11:c9:fd:b7:67:
                    c3:e7:fb:99:62:2e:6a:d3:19:1a:fc:94:f0:fa:aa:
                    49:2f:c2:47:70:fb:62:db:de:70:5b:15:8d:e2:ca:
                    4c:e1
                Exponent: 65537 (0x10001)
    Signature Algorithm: sha1WithRSAEncryption
         69:73:61:48:d5:f3:e5:5a:c7:32:75:c3:66:3e:cb:ba:0c:47:
         12:ee:33:a6:b7:21:7c:1a:42:17:bb:23:7d:21:c0:f6:8b:f7:
         26:ac:ce:46:f2:df:b4:c0:e2:b3:04:8c:8c:fa:09:b6:a7:d1:
         e7:f9:7a:de:0f:56:1e:a8:d5:a3:55:6b:cc:c3:8f:99:de:ae:
         cf:5e:3b:f6:f5:c3:d2:d9:c5:12:ad:91:d9:ed:67:c0:3a:26:
         66:6a:ae:f7:07:25:9a:74:a1:3b:a1:d9:a7:df:4c:9c:1a:53:
         38:98:d3:3f:51:b7:8c:60:81:b2:6a:2d:08:1c:75:9e:c3:97:
         79:54:0c:e7:79:b4:dc:57:9c:54:dd:a0:3c:95:54:a0:b0:78:
         12:19:97:b6:87:87:97:e3:b0:e1:95:15:9e:d9:42:b0:1f:df:
         ea:24:71:2c:90:94:91:db:78:64:0f:d8:d9:7c:c1:7e:b1:b7:
         3a:b3:a0:ea:f6:cc:83:be:2f:00:9f:d4:28:ea:78:99:cc:20:
         c8:bd:8b:f1:46:5d:66:ff:b7:ce:96:29:54:b7:ce:58:e0:d1:
         9d:54:64:33:64:e1:fc:ad:c7:70:5a:cd:13:a0:c9:b7:22:10:
         c4:bd:ed:92:31:14:35:8e:14:40:92:87:13:65:85:4a:ee:4b:
         b7:2a:08:a3
-----BEGIN CERTIFICATE-----
MIIDaDCCAlACCQDthlNaWBAAFTANBgkqhkiG9w0BAQUFADCBgDELMAkGA1UEBhMC
VVMxCzAJBgNVBAgMAkNBMRQwEgYDVQQHDAtTYW50YSBDbGFyYTEeMBwGA1UECgwV
UmVhbCBUaW1lIElubm92YXRpb25zMQ8wDQYDVQQDDAZSVEkgQ0ExHTAbBgkqhkiG
9w0BCQEWDnNlY3VyZUBydGkuY29tMB4XDTE5MDMwMTA2MTQxNFoXDTIwMDIyOTA2
MTQxNFowazELMAkGA1UEBhMCVVMxCzAJBgNVBAgMAkNBMR4wHAYDVQQKDBVSZWFs
IFRpbWUgSW5ub3ZhdGlvbnMxFDASBgNVBAMMC2R0bHNleGFtcGxlMRkwFwYJKoZI
hvcNAQkBFgptZUBydGkuY29tMIIBIjANBgkqhkiG9w0BAQEFAAOCAQ8AMIIBCgKC
AQEAsq/JbSnPBLed9cWl464X7H5kEVeTmbW8ZsxCZiTzhNhz4Oj8R9C0y+G6aPrS
cYA8w8u3DjW+3bagK2cl2WwLepjtLpEq6iRnhzh8F6G8cj/oAzqWIMEoG4vDk5ee
7zpgeU9t7VMTDFxpg0z7tdLDKes2Fnh52wDY3K8WtOgYeSOdACl5OFLDS2h9hgff
cc8Dt2mk4e1XJ9tW+CfU0KAEqEMSzKczknct3wavOMS8Buwds9Q56TvN44yLj+v1
Zp4qVyHblduXw1A0w59Lain2KFplznc0mHmQ4eXeEcn9t2fD5/uZYi5q0xka/JTw
+qpJL8JHcPti295wWxWN4spM4QIDAQABMA0GCSqGSIb3DQEBBQUAA4IBAQBpc2FI
1fPlWscydcNmPsu6DEcS7jOmtyF8GkIXuyN9IcD2i/cmrM5G8t+0wOKzBIyM+gm2
p9Hn+XreD1YeqNWjVWvMw4+Z3q7PXjv29cPS2cUSrZHZ7WfAOiZmaq73ByWadKE7
odmn30ycGlM4mNM/UbeMYIGyai0IHHWew5d5VAznebTcV5xU3aA8lVSgsHgSGZe2
h4eX47DhlRWe2UKwH9/qJHEskJSR23hkD9jZfMF+sbc6s6Dq9syDvi8An9Qo6niZ
zCDIvYvxRl1m/7fOlilUt85Y4NGdVGQzZOH8rcdwWs0ToMm3IhDEve2SMRQ1jhRA
kocTZYVK7ku3Kgij
-----END CERTIFICATE-----
-----BEGIN PRIVATE KEY-----
MIIEvgIBADANBgkqhkiG9w0BAQEFAASCBKgwggSkAgEAAoIBAQCyr8ltKc8Et531
xaXjrhfsfmQRV5OZtbxmzEJmJPOE2HPg6PxH0LTL4bpo+tJxgDzDy7cONb7dtqAr
ZyXZbAt6mO0ukSrqJGeHOHwXobxyP+gDOpYgwSgbi8OTl57vOmB5T23tUxMMXGmD
TPu10sMp6zYWeHnbANjcrxa06Bh5I50AKXk4UsNLaH2GB99xzwO3aaTh7Vcn21b4
J9TQoASoQxLMpzOSdy3fBq84xLwG7B2z1DnpO83jjIuP6/VmnipXIduV25fDUDTD
n0tqKfYoWmXOdzSYeZDh5d4Ryf23Z8Pn+5liLmrTGRr8lPD6qkkvwkdw+2Lb3nBb
FY3iykzhAgMBAAECggEBAKRvbHfO37nBl9WSm4SYs19pOIFVDHmJauVW10vUeV0p
LAovneogwCBXjAoLuBnHHyQ3li+3efvikice9w/MhAvAK5SM9ucdtUAU1O2SYy7o
bIR8J6fg2R3wUnzCLPqNyDYayFh7+K2JZXf1IjZCzGMJF286Uzkc4HTFk6nLZKok
eBLnRBuaxxaJJrw86pxn+CGAu8so1O51CUJBFQUVrIQH5HwAmY8kI++JV+y7Q7Ts
t+3FO2MfQ39sdwfKDarzp7+6G5nAaFCXR9ZJMo984oZaYBi7DR6adcViK9ywuiH3
MnOye/1dpcOWYYJ4bSAUmx4gfomDFhBHwgk2PnJ1q7kCgYEA22C807mj3VmUaK6e
VSumJau9fTmgppV1GAId9t5IghvkmyTiMBPFJsLi6tm0aJYgNLSseCOmvWsUY4TZ
fy+q3eN6tsZ8ubDSaMmHuuVlxWeiuEMl+7xLqCqbF1UtdX9IJRHTp3VI+eQzQMQ/
eq5O+0PKlwmDWh288bYO18ILnRsCgYEA0IQVJlGiYb2zuyt1ok+FZE8O6E0LKLwg
ErvkiIq3ZnU5mG8DS1V69eLbF0vSU1IqKkUpvREvzssJweWYUUxUakt9ZTqPAKMa
To4pOBKIznkyyCVAgck9uSz01zG2dJjdJ5TGTxbnWLLx0WMsBtZ9b3o+hbxu4DVK
MR+HMUpIibMCgYAt16491Dow5CpGIc9GXwOuNZA4XdV7WhoI9VBLqTGftrJz1SZL
A6acLfd7OhkgDdcXDHZJ+LE8PecZ0MYedNiQ25tmHF4t84xUh2CMpqk4sipntOh4
DWYF8zlLi+oe9oUd8fa3tKOWTKCFNT1Kpqgsi4MHQt6m8zXrkK7TWWJR5wKBgQCu
jHLb8ehZo6Cp5PaDGchTMO8MvTnDLsA2jnz/ZAekyCqflQaP8I2O+glnVfxJ7XUI
j38iGxoHJOYVHypDm/7qQClHLR76bI6gBdcxbiqBlOlSrAR04M4/jgejgKT4s+Il
uR/MoyKkmJ9fJYJ8ct7sC8v8zcGPBG0H9BmKxGE2iwKBgC5fy8GEdn8V9V2tceSf
LMztiYLNmWM6nWAVo6OywXWML82ZCuywEUNL8v9bBbkNNcJ02Qj5tH8rTTmC0LZ8
l9qI0W2PxQmppUn+fCbzD/db7bTCtlg6Cwe/li7W5aExEGST3a2MmYOQB9cP91tP
0ajs9gTbTOo9vfTf9QCPs1Fz
-----END PRIVATE KEY-----
