Certificate:
    Data:
        Version: 1 (0x0)
        Serial Number:
            ed:86:53:5a:58:10:00:16
    Signature Algorithm: sha1WithRSAEncryption
        Issuer: C=US, ST=CA, L=Santa Clara, O=Real Time Innovations, CN=RTI CA/emailAddress=secure@rti.com
        Validity
            Not Before: Mar  1 06:14:14 2019 GMT
            Not After : Feb 29 06:14:14 2020 GMT
        Subject: C=US, ST=CA, O=Real Time Innovations, CN=dtlsexample2/emailAddress=you@rti.com
        Subject Public Key Info:
            Public Key Algorithm: rsaEncryption
                Public-Key: (2048 bit)
                Modulus:
                    00:b1:87:2d:7c:8b:bc:12:50:ec:c6:a2:24:43:11:
                    4e:4b:2b:c9:42:12:d1:e4:02:74:97:b4:20:11:c7:
                    93:92:34:ce:03:73:b8:16:85:95:fb:3d:5e:d8:10:
                    9b:de:43:a6:a6:c7:c5:5f:3e:f8:be:f0:ea:c4:ce:
                    59:49:87:93:bb:25:fb:72:28:1c:ba:96:16:2f:f6:
                    58:3c:23:77:87:83:4b:57:ab:fd:8c:fc:b9:30:a7:
                    f6:d0:63:f5:af:28:37:b6:da:43:ae:3f:e6:87:19:
                    27:2b:9a:25:1a:e0:84:a2:be:d0:e2:c9:c2:08:1e:
                    00:85:63:5a:77:6e:5d:33:fe:24:47:7f:ed:25:31:
                    8d:ae:7c:c2:2a:51:9a:3a:72:58:cf:24:da:7b:c2:
                    ff:ff:dc:c2:2b:f2:43:c2:a0:11:3d:bc:b6:79:77:
                    a1:0f:2d:93:8d:b6:52:a7:76:23:da:5e:32:74:9f:
                    6c:13:31:90:36:27:4a:9d:71:3d:07:19:a1:8a:13:
                    bc:e2:ce:94:7a:b4:99:e6:b6:a1:7a:4b:85:19:67:
                    9e:66:1d:69:51:44:82:e0:df:ac:01:c6:2c:22:d5:
                    ed:6a:e2:dc:20:03:b2:8f:44:38:47:64:c5:81:31:
                    0e:c5:66:d9:6a:eb:ed:49:c0:62:94:8a:26:1e:94:
                    99:cf
                Exponent: 65537 (0x10001)
    Signature Algorithm: sha1WithRSAEncryption
         26:fd:94:4d:c8:7c:90:35:a6:e0:53:42:53:30:8f:cb:6f:0e:
         bd:2b:b7:75:e3:f7:4b:37:28:2a:58:c8:27:23:10:8c:39:05:
         16:a2:ec:d7:23:33:00:ff:6f:c3:92:02:42:8e:cd:38:a0:b6:
         05:39:43:c0:12:45:70:47:e2:02:b4:82:e8:a7:71:7c:44:0a:
         51:73:b4:5e:8b:e8:df:c1:a0:97:aa:08:14:7d:d4:9d:c2:4e:
         19:01:0c:42:55:0d:b2:4f:59:52:a5:ec:33:93:f5:25:d4:d5:
         f6:0b:e9:ec:51:96:82:09:82:5d:82:42:25:ea:05:03:77:98:
         f6:c0:c7:2b:08:28:38:8d:a5:af:40:f1:06:64:ed:40:83:13:
         fa:38:54:b4:1b:df:ca:fd:7b:26:4d:3d:2c:f4:a7:71:1b:a0:
         9b:15:7b:63:3d:8d:ba:3e:f1:2c:c8:64:56:73:8e:f6:73:78:
         36:80:df:30:4a:8a:ee:6c:90:a5:a3:61:09:da:d5:28:9d:bd:
         3e:e1:91:57:97:b2:c5:72:8c:be:66:37:ba:77:3d:97:86:ef:
         82:4c:bd:a6:0e:1f:5e:dc:7f:81:91:72:0a:9f:84:71:d2:35:
         c5:78:0a:41:54:39:d2:41:b8:f8:3b:ca:f0:14:5f:df:78:2a:
         ab:d6:aa:a7
-----BEGIN CERTIFICATE-----
MIIDajCCAlICCQDthlNaWBAAFjANBgkqhkiG9w0BAQUFADCBgDELMAkGA1UEBhMC
VVMxCzAJBgNVBAgMAkNBMRQwEgYDVQQHDAtTYW50YSBDbGFyYTEeMBwGA1UECgwV
UmVhbCBUaW1lIElubm92YXRpb25zMQ8wDQYDVQQDDAZSVEkgQ0ExHTAbBgkqhkiG
9w0BCQEWDnNlY3VyZUBydGkuY29tMB4XDTE5MDMwMTA2MTQxNFoXDTIwMDIyOTA2
MTQxNFowbTELMAkGA1UEBhMCVVMxCzAJBgNVBAgMAkNBMR4wHAYDVQQKDBVSZWFs
IFRpbWUgSW5ub3ZhdGlvbnMxFTATBgNVBAMMDGR0bHNleGFtcGxlMjEaMBgGCSqG
SIb3DQEJARYLeW91QHJ0aS5jb20wggEiMA0GCSqGSIb3DQEBAQUAA4IBDwAwggEK
AoIBAQCxhy18i7wSUOzGoiRDEU5LK8lCEtHkAnSXtCARx5OSNM4Dc7gWhZX7PV7Y
EJveQ6amx8VfPvi+8OrEzllJh5O7JftyKBy6lhYv9lg8I3eHg0tXq/2M/Lkwp/bQ
Y/WvKDe22kOuP+aHGScrmiUa4ISivtDiycIIHgCFY1p3bl0z/iRHf+0lMY2ufMIq
UZo6cljPJNp7wv//3MIr8kPCoBE9vLZ5d6EPLZONtlKndiPaXjJ0n2wTMZA2J0qd
cT0HGaGKE7zizpR6tJnmtqF6S4UZZ55mHWlRRILg36wBxiwi1e1q4twgA7KPRDhH
ZMWBMQ7FZtlq6+1JwGKUiiYelJnPAgMBAAEwDQYJKoZIhvcNAQEFBQADggEBACb9
lE3IfJA1puBTQlMwj8tvDr0rt3Xj90s3KCpYyCcjEIw5BRai7NcjMwD/b8OSAkKO
zTigtgU5Q8ASRXBH4gK0guincXxEClFztF6L6N/BoJeqCBR91J3CThkBDEJVDbJP
WVKl7DOT9SXU1fYL6exRloIJgl2CQiXqBQN3mPbAxysIKDiNpa9A8QZk7UCDE/o4
VLQb38r9eyZNPSz0p3EboJsVe2M9jbo+8SzIZFZzjvZzeDaA3zBKiu5skKWjYQna
1SidvT7hkVeXssVyjL5mN7p3PZeG74JMvaYOH17cf4GRcgqfhHHSNcV4CkFUOdJB
uPg7yvAUX994KqvWqqc=
-----END CERTIFICATE-----
-----BEGIN PRIVATE KEY-----
MIIEvQIBADANBgkqhkiG9w0BAQEFAASCBKcwggSjAgEAAoIBAQCxhy18i7wSUOzG
oiRDEU5LK8lCEtHkAnSXtCARx5OSNM4Dc7gWhZX7PV7YEJveQ6amx8VfPvi+8OrE
zllJh5O7JftyKBy6lhYv9lg8I3eHg0tXq/2M/Lkwp/bQY/WvKDe22kOuP+aHGScr
miUa4ISivtDiycIIHgCFY1p3bl0z/iRHf+0lMY2ufMIqUZo6cljPJNp7wv//3MIr
8kPCoBE9vLZ5d6EPLZONtlKndiPaXjJ0n2wTMZA2J0qdcT0HGaGKE7zizpR6tJnm
tqF6S4UZZ55mHWlRRILg36wBxiwi1e1q4twgA7KPRDhHZMWBMQ7FZtlq6+1JwGKU
iiYelJnPAgMBAAECggEBAKjiWiljnXUnOzjzwt9ytTLZ4spSsQ3iMByppOCFJiQu
y9WI3pW+W6H5DiMqGb3mScHbxi4H8AdllVHIpDRJIAcn6P7+neX7JfxWtDXx36Ix
CxnKapkXSu24vBofHfiVn/r5xO0dqSbYjOTz7VyWPle8g2dcXJPwRrqee8+mVFBC
XPJBonrRL/EBpoWPnpwf9zBrzGv7msyDwSjVssV0aqzZLlZAj2WS1/ZtYiIzTuW0
t7M+PlTlSzYvqgHbC/P92WwJQhCN7w2jSFB51FBnXi96DK4JZtkIulLpofH4mmoB
W57FqwabjEY8FrAUCaG+3RFwrn7+sCexehsIwDVg2jECgYEA4UP3GxUR1JQDmGGC
Tx/nNzQByUQ9RbcaBeU+DMzIvw5tMYwM6VPcWt3P7LzQmGsWa1bCeOThQlHwkO/M
qinlgEwchauNuokGv2qUhqM8nQncDF0OyHYm1bShSbqYZwsa9zGGFOpLjtE46sgo
wGa4N6ZeqtIs7n7SOnVh3IFl4i0CgYEAyb/Yycyz7RgibXLAzmkANSyWiTkhwcX2
T0O6RMsPBirLY0JzbJKiA+sUfbeki+YMHDIQvwlo0T1181SE9RYbZaJO5bXNypSq
fJQ4GA4fYLg5OclOI1zrlZ8iDm7Ivcw4QeY3ac+bI3r/e0V1Wcny8/HmBxB1jG1z
slstVT3y9WsCgYAMV9QHaN0kP8P+qoEgYsghjzj11UZiNok3f3sp6mKpjVnQWDMw
6cZuOC83cpUfdOaylPts8mWhY6oB1xHo1QjdQc5iSKcobG+xN17SDcm5dRvYlZTE
ySyRkycvSgklxEcC+nS1Wq0vMymiO7t352j6q6QOShvqKYrNZzcohPKXNQKBgBH7
IEY0EWEzQnZAwQBkiVkz5SLLzb9odmBwJ9zTwD4LeF8bYBAwLXJt9ECUKn0xfqjQ
qX9tRkNH2Ahc4xC47K4tPhzpDDNe9qbtyuYR9Cf5o1gMIgOy12hZa36fzxJjbiwp
aYzrrOcHoleJREFBZ37oc1jz1ZYzdxlRWQP85neLAoGALG02YC3QRlRyXovQElZ/
wijEhteNMgGu5SLQymc0Ps+sWe8BDeRK9XF2X+RRHoh2BSlLbDDJXJzMAei3oHUd
21IP4o036SpkojrtkwCCv9PWDP31CCx4Ayli5vMJRHzx/PgC1HCvd+FDi2qbcLZY
K9MPKJ1Ag6o3yuiRF0WscTY=
-----END PRIVATE KEY-----
